; Function Attrs: nounwind uwtable
define internal noundef ptr @_heapq__heapify_max(ptr readnone captures(none) %0, ptr noundef %1) #0 {
  %3 = getelementptr i8, ptr %1, i64 8
  %.val = load ptr, ptr %3, align 8, !tbaa !8
  %4 = getelementptr i8, ptr %.val, i64 168
  %.val6 = load i64, ptr %4, align 8, !tbaa !11
  %5 = and i64 %.val6, 33554432
  %.not = icmp eq i64 %5, 0
  br i1 %.not, label %6, label %7

6:                                                ; preds = %2
  tail call void @_PyArg_BadArgument(ptr noundef nonnull @.str.7, ptr noundef nonnull @.str.14, ptr noundef nonnull @.str.11, ptr noundef nonnull %1) #2
  br label %9

7:                                                ; preds = %2
  %8 = tail call fastcc noundef ptr @heapify_internal(ptr noundef nonnull %1, ptr noundef nonnull @siftup_max)
  br label %9

9:                                                ; preds = %7, %6
  %.0 = phi ptr [ %8, %7 ], [ null, %6 ]
  ret ptr %.0
}